---
triple:          'arm64-apple-darwin'
binary-path:     jsonParser
relocations:
  - { offset: 0xB1D4, size: 0x8, addend: 0x0, symName: __ZNSt3__124__put_character_sequenceB8ne180100IcNS_11char_traitsIcEEEERNS_13basic_ostreamIT_T0_EES7_PKS4_m, symObjAddr: 0x35D8, symBinAddr: 0x100006D30, symSize: 0x1EC }
  - { offset: 0xC045, size: 0x8, addend: 0x0, symName: __ZNSt3__1lsB8ne180100INS_11char_traitsIcEEEERNS_13basic_ostreamIcT_EES6_PKc, symObjAddr: 0x49C, symBinAddr: 0x100003BF4, symSize: 0x48 }
  - { offset: 0xCE35, size: 0x8, addend: 0x0, symName: __ZNSt3__1lsB8ne180100IcNS_11char_traitsIcEENS_9allocatorIcEEEERNS_13basic_ostreamIT_T0_EES9_RKNS_12basic_stringIS6_S7_T1_EE, symObjAddr: 0x784, symBinAddr: 0x100003EDC, symSize: 0x4C }
  - { offset: 0xCE98, size: 0x8, addend: 0x0, symName: __ZNSt3__19has_facetB8ne180100INS_7codecvtIwc11__mbstate_tEEEEbRKNS_6localeE, symObjAddr: 0xBE8, symBinAddr: 0x100004340, symSize: 0x40 }
  - { offset: 0xCECD, size: 0x8, addend: 0x0, symName: __ZNSt3__19use_facetB8ne180100INS_7codecvtIwc11__mbstate_tEEEERKT_RKNS_6localeE, symObjAddr: 0xC64, symBinAddr: 0x1000043BC, symSize: 0x2C }
  - { offset: 0xCF02, size: 0x8, addend: 0x0, symName: __ZNSt3__13maxB8ne180100IlEERKT_S3_S3_, symObjAddr: 0x23D0, symBinAddr: 0x100005B28, symSize: 0x2C }
  - { offset: 0xCF45, size: 0x8, addend: 0x0, symName: __ZNSt3__13maxB8ne180100IlNS_6__lessIvvEEEERKT_S5_S5_T0_, symObjAddr: 0x23FC, symBinAddr: 0x100005B54, symSize: 0x54 }
  - { offset: 0xD015, size: 0x8, addend: 0x0, symName: __ZNSt3__116__throw_bad_castB8ne180100Ev, symObjAddr: 0x2484, symBinAddr: 0x100005BDC, symSize: 0x34 }
  - { offset: 0xD02F, size: 0x8, addend: 0x0, symName: __ZNSt3__13minB8ne180100ImEERKT_S3_S3_, symObjAddr: 0x27C8, symBinAddr: 0x100005F20, symSize: 0x2C }
  - { offset: 0xD072, size: 0x8, addend: 0x0, symName: __ZNSt3__13minB8ne180100ImNS_6__lessIvvEEEERKT_S5_S5_T0_, symObjAddr: 0x286C, symBinAddr: 0x100005FC4, symSize: 0x54 }
  - { offset: 0xD0CC, size: 0x8, addend: 0x0, symName: __ZNSt3__112__to_addressB8ne180100IKcEEPT_S3_, symObjAddr: 0x2EE8, symBinAddr: 0x100006640, symSize: 0x14 }
  - { offset: 0xD52B, size: 0x8, addend: 0x0, symName: __ZNSt3__116__pad_and_outputB8ne180100IcNS_11char_traitsIcEEEENS_19ostreambuf_iteratorIT_T0_EES6_PKS4_S8_S8_RNS_8ios_baseES4_, symObjAddr: 0x3834, symBinAddr: 0x100006F8C, symSize: 0x240 }
  - { offset: 0xD5FA, size: 0x8, addend: 0x0, symName: __ZNSt3__112__to_addressB8ne180100IcEEPT_S2_, symObjAddr: 0x3D9C, symBinAddr: 0x1000074F4, symSize: 0x14 }
  - { offset: 0xD662, size: 0x8, addend: 0x0, symName: __ZNSt3__19use_facetB8ne180100INS_5ctypeIcEEEERKT_RKNS_6localeE, symObjAddr: 0x3FE4, symBinAddr: 0x10000773C, symSize: 0x2C }
  - { offset: 0xDB2F, size: 0x8, addend: 0x0, symName: __ZNSt3__118__constexpr_strlenB8ne180100EPKc, symObjAddr: 0x413C, symBinAddr: 0x100007894, symSize: 0x24 }
  - { offset: 0xF455, size: 0x8, addend: 0x0, symName: _main, symObjAddr: 0x0, symBinAddr: 0x100003758, symSize: 0x110 }
  - { offset: 0xF48B, size: 0x8, addend: 0x0, symName: __ZL6isJSONNSt3__112basic_stringIcNS_11char_traitsIcEENS_9allocatorIcEEEE, symObjAddr: 0x110, symBinAddr: 0x100003868, symSize: 0x358 }
  - { offset: 0xF4EB, size: 0x8, addend: 0x0, symName: __ZNSt3__112basic_stringIcNS_11char_traitsIcEENS_9allocatorIcEEEC1B8ne180100ILi0EEEPKc, symObjAddr: 0x468, symBinAddr: 0x100003BC0, symSize: 0x34 }
  - { offset: 0xF635, size: 0x8, addend: 0x0, symName: __ZNSt3__114basic_ifstreamIwNS_11char_traitsIwEEEC1ERKNS_12basic_stringIcNS1_IcEENS_9allocatorIcEEEEj, symObjAddr: 0x4E4, symBinAddr: 0x100003C3C, symSize: 0x164 }
  - { offset: 0xF67D, size: 0x8, addend: 0x0, symName: __ZNKSt3__114basic_ifstreamIwNS_11char_traitsIwEEE7is_openEv, symObjAddr: 0x648, symBinAddr: 0x100003DA0, symSize: 0x2C }
  - { offset: 0xF6A3, size: 0x8, addend: 0x0, symName: __ZNSt3__113basic_istreamIwNS_11char_traitsIwEEE3getB8ne180100ERw, symObjAddr: 0x674, symBinAddr: 0x100003DCC, symSize: 0x68 }
  - { offset: 0xF6E5, size: 0x8, addend: 0x0, symName: __ZNKSt3__19basic_iosIwNS_11char_traitsIwEEEcvbB8ne180100Ev, symObjAddr: 0x6DC, symBinAddr: 0x100003E34, symSize: 0x2C }
  - { offset: 0xF709, size: 0x8, addend: 0x0, symName: __ZNSt3__114basic_ifstreamIwNS_11char_traitsIwEEE5closeEv, symObjAddr: 0x708, symBinAddr: 0x100003E60, symSize: 0x58 }
  - { offset: 0xF72F, size: 0x8, addend: 0x0, symName: __ZNKSt3__19basic_iosIwNS_11char_traitsIwEEE7rdstateB8ne180100Ev, symObjAddr: 0x760, symBinAddr: 0x100003EB8, symSize: 0x24 }
  - { offset: 0xF758, size: 0x8, addend: 0x0, symName: __ZNSt3__114basic_ifstreamIwNS_11char_traitsIwEEED1Ev, symObjAddr: 0x7D0, symBinAddr: 0x100003F28, symSize: 0x40 }
  - { offset: 0xF782, size: 0x8, addend: 0x0, symName: __ZNSt3__19basic_iosIwNS_11char_traitsIwEEEC2B8ne180100Ev, symObjAddr: 0x810, symBinAddr: 0x100003F68, symSize: 0x3C }
  - { offset: 0xF7AA, size: 0x8, addend: 0x0, symName: __ZNSt3__113basic_istreamIwNS_11char_traitsIwEEEC2B8ne180100EPNS_15basic_streambufIwS2_EE, symObjAddr: 0x84C, symBinAddr: 0x100003FA4, symSize: 0x64 }
  - { offset: 0xF7EC, size: 0x8, addend: 0x0, symName: __ZNSt3__113basic_filebufIwNS_11char_traitsIwEEEC1Ev, symObjAddr: 0x8B0, symBinAddr: 0x100004008, symSize: 0x2C }
  - { offset: 0xF816, size: 0x8, addend: 0x0, symName: __ZNSt3__113basic_filebufIwNS_11char_traitsIwEEE4openERKNS_12basic_stringIcNS1_IcEENS_9allocatorIcEEEEj, symObjAddr: 0x8DC, symBinAddr: 0x100004034, symSize: 0x44 }
  - { offset: 0xF85A, size: 0x8, addend: 0x0, symName: __ZNSt3__19basic_iosIwNS_11char_traitsIwEEE8setstateB8ne180100Ej, symObjAddr: 0x920, symBinAddr: 0x100004078, symSize: 0x2C }
  - { offset: 0xF88D, size: 0x8, addend: 0x0, symName: __ZNSt3__113basic_filebufIwNS_11char_traitsIwEEED1Ev, symObjAddr: 0x94C, symBinAddr: 0x1000040A4, symSize: 0x2C }
  - { offset: 0xF8B7, size: 0x8, addend: 0x0, symName: __ZNSt3__114basic_ifstreamIwNS_11char_traitsIwEEED0Ev, symObjAddr: 0x978, symBinAddr: 0x1000040D0, symSize: 0x30 }
  - { offset: 0xF8E1, size: 0x8, addend: 0x0, symName: __ZTv0_n24_NSt3__114basic_ifstreamIwNS_11char_traitsIwEEED1Ev, symObjAddr: 0x9A8, symBinAddr: 0x100004100, symSize: 0x28 }
  - { offset: 0xF8F6, size: 0x8, addend: 0x0, symName: __ZTv0_n24_NSt3__114basic_ifstreamIwNS_11char_traitsIwEEED0Ev, symObjAddr: 0x9D0, symBinAddr: 0x100004128, symSize: 0x20 }
  - { offset: 0xF90B, size: 0x8, addend: 0x0, symName: __ZNSt3__18ios_baseC2B8ne180100Ev, symObjAddr: 0x9F0, symBinAddr: 0x100004148, symSize: 0x24 }
  - { offset: 0xF933, size: 0x8, addend: 0x0, symName: __ZNSt3__19basic_iosIwNS_11char_traitsIwEEE4initB8ne180100EPNS_15basic_streambufIwS2_EE, symObjAddr: 0xA14, symBinAddr: 0x10000416C, symSize: 0x44 }
  - { offset: 0xF968, size: 0x8, addend: 0x0, symName: __ZNSt3__111char_traitsIwE3eofB8ne180100Ev, symObjAddr: 0xA58, symBinAddr: 0x1000041B0, symSize: 0x8 }
  - { offset: 0xF97B, size: 0x8, addend: 0x0, symName: __ZNSt3__113basic_filebufIwNS_11char_traitsIwEEEC2Ev, symObjAddr: 0xA60, symBinAddr: 0x1000041B8, symSize: 0x188 }
  - { offset: 0xF9A5, size: 0x8, addend: 0x0, symName: __ZNKSt3__115basic_streambufIwNS_11char_traitsIwEEE6getlocB8ne180100Ev, symObjAddr: 0xC28, symBinAddr: 0x100004380, symSize: 0x3C }
  - { offset: 0xF9C9, size: 0x8, addend: 0x0, symName: __ZNKSt3__17codecvtIwc11__mbstate_tE13always_noconvB8ne180100Ev, symObjAddr: 0xC90, symBinAddr: 0x1000043E8, symSize: 0x30 }
  - { offset: 0xF9ED, size: 0x8, addend: 0x0, symName: __ZNSt3__113basic_filebufIwNS_11char_traitsIwEEED0Ev, symObjAddr: 0xCC0, symBinAddr: 0x100004418, symSize: 0x30 }
  - { offset: 0xFA17, size: 0x8, addend: 0x0, symName: __ZNSt3__113basic_filebufIwNS_11char_traitsIwEEE5imbueERKNS_6localeE, symObjAddr: 0xCF0, symBinAddr: 0x100004448, symSize: 0x1E4 }
  - { offset: 0xFA5B, size: 0x8, addend: 0x0, symName: __ZNSt3__113basic_filebufIwNS_11char_traitsIwEEE6setbufEPwl, symObjAddr: 0xED4, symBinAddr: 0x10000462C, symSize: 0x22C }
  - { offset: 0xFA9F, size: 0x8, addend: 0x0, symName: __ZNSt3__113basic_filebufIwNS_11char_traitsIwEEE7seekoffExNS_8ios_base7seekdirEj, symObjAddr: 0x1100, symBinAddr: 0x100004858, symSize: 0x220 }
  - { offset: 0xFB20, size: 0x8, addend: 0x0, symName: __ZNSt3__113basic_filebufIwNS_11char_traitsIwEEE7seekposENS_4fposI11__mbstate_tEEj, symObjAddr: 0x1320, symBinAddr: 0x100004A78, symSize: 0x128 }
  - { offset: 0xFB62, size: 0x8, addend: 0x0, symName: __ZNSt3__113basic_filebufIwNS_11char_traitsIwEEE4syncEv, symObjAddr: 0x1448, symBinAddr: 0x100004BA0, symSize: 0x45C }
  - { offset: 0xFC47, size: 0x8, addend: 0x0, symName: __ZNSt3__113basic_filebufIwNS_11char_traitsIwEEE9underflowEv, symObjAddr: 0x18A4, symBinAddr: 0x100004FFC, symSize: 0x560 }
  - { offset: 0xFD24, size: 0x8, addend: 0x0, symName: __ZNSt3__113basic_filebufIwNS_11char_traitsIwEEE9pbackfailEi, symObjAddr: 0x1E04, symBinAddr: 0x10000555C, symSize: 0x140 }
  - { offset: 0xFD59, size: 0x8, addend: 0x0, symName: __ZNSt3__113basic_filebufIwNS_11char_traitsIwEEE8overflowEi, symObjAddr: 0x1F44, symBinAddr: 0x10000569C, symSize: 0x414 }
  - { offset: 0xFE56, size: 0x8, addend: 0x0, symName: __ZNSt3__115basic_streambufIwNS_11char_traitsIwEEE4setgB8ne180100EPwS4_S4_, symObjAddr: 0x2368, symBinAddr: 0x100005AC0, symSize: 0x38 }
  - { offset: 0xFEA4, size: 0x8, addend: 0x0, symName: __ZNSt3__115basic_streambufIwNS_11char_traitsIwEEE4setpB8ne180100EPwS4_, symObjAddr: 0x23A0, symBinAddr: 0x100005AF8, symSize: 0x30 }
  - { offset: 0xFEF8, size: 0x8, addend: 0x0, symName: __ZNKSt3__16__lessIvvEclB8ne180100IllEEbRKT_RKT0_, symObjAddr: 0x2450, symBinAddr: 0x100005BA8, symSize: 0x34 }
  - { offset: 0xFF4A, size: 0x8, addend: 0x0, symName: __ZNKSt3__17codecvtIwc11__mbstate_tE8encodingB8ne180100Ev, symObjAddr: 0x24B8, symBinAddr: 0x100005C10, symSize: 0x2C }
  - { offset: 0xFF6E, size: 0x8, addend: 0x0, symName: __ZNSt3__14fposI11__mbstate_tEC1B8ne180100Ex, symObjAddr: 0x24E4, symBinAddr: 0x100005C3C, symSize: 0x34 }
  - { offset: 0xFFA4, size: 0x8, addend: 0x0, symName: __ZNSt3__14fposI11__mbstate_tE5stateB8ne180100ES1_, symObjAddr: 0x2518, symBinAddr: 0x100005C70, symSize: 0x30 }
  - { offset: 0xFFD7, size: 0x8, addend: 0x0, symName: __ZNSt3__14fposI11__mbstate_tEC2B8ne180100Ex, symObjAddr: 0x2548, symBinAddr: 0x100005CA0, symSize: 0x40 }
  - { offset: 0x1000D, size: 0x8, addend: 0x0, symName: __ZNKSt3__14fposI11__mbstate_tEcvxB8ne180100Ev, symObjAddr: 0x2588, symBinAddr: 0x100005CE0, symSize: 0x18 }
  - { offset: 0x10031, size: 0x8, addend: 0x0, symName: __ZNKSt3__14fposI11__mbstate_tE5stateB8ne180100Ev, symObjAddr: 0x25A0, symBinAddr: 0x100005CF8, symSize: 0x34 }
  - { offset: 0x10055, size: 0x8, addend: 0x0, symName: __ZNKSt3__115basic_streambufIwNS_11char_traitsIwEEE4pptrB8ne180100Ev, symObjAddr: 0x25D4, symBinAddr: 0x100005D2C, symSize: 0x18 }
  - { offset: 0x10079, size: 0x8, addend: 0x0, symName: __ZNKSt3__115basic_streambufIwNS_11char_traitsIwEEE5pbaseB8ne180100Ev, symObjAddr: 0x25EC, symBinAddr: 0x100005D44, symSize: 0x18 }
  - { offset: 0x1009D, size: 0x8, addend: 0x0, symName: __ZNKSt3__17codecvtIwc11__mbstate_tE7unshiftB8ne180100ERS1_PcS4_RS4_, symObjAddr: 0x2604, symBinAddr: 0x100005D5C, symSize: 0x4C }
  - { offset: 0x100FD, size: 0x8, addend: 0x0, symName: __ZNKSt3__115basic_streambufIwNS_11char_traitsIwEEE5egptrB8ne180100Ev, symObjAddr: 0x2650, symBinAddr: 0x100005DA8, symSize: 0x18 }
  - { offset: 0x10121, size: 0x8, addend: 0x0, symName: __ZNKSt3__115basic_streambufIwNS_11char_traitsIwEEE4gptrB8ne180100Ev, symObjAddr: 0x2668, symBinAddr: 0x100005DC0, symSize: 0x18 }
  - { offset: 0x10145, size: 0x8, addend: 0x0, symName: __ZNKSt3__17codecvtIwc11__mbstate_tE6lengthB8ne180100ERS1_PKcS5_m, symObjAddr: 0x2680, symBinAddr: 0x100005DD8, symSize: 0x4C }
  - { offset: 0x101A5, size: 0x8, addend: 0x0, symName: __ZNKSt3__115basic_streambufIwNS_11char_traitsIwEEE5ebackB8ne180100Ev, symObjAddr: 0x26CC, symBinAddr: 0x100005E24, symSize: 0x18 }
  - { offset: 0x101C9, size: 0x8, addend: 0x0, symName: __ZNSt3__113basic_filebufIwNS_11char_traitsIwEEE11__read_modeEv, symObjAddr: 0x26E4, symBinAddr: 0x100005E3C, symSize: 0xE4 }
  - { offset: 0x101EF, size: 0x8, addend: 0x0, symName: __ZNSt3__111char_traitsIwE11to_int_typeB8ne180100Ew, symObjAddr: 0x27F4, symBinAddr: 0x100005F4C, symSize: 0x14 }
  - { offset: 0x10212, size: 0x8, addend: 0x0, symName: __ZNKSt3__17codecvtIwc11__mbstate_tE2inB8ne180100ERS1_PKcS5_RS5_PwS7_RS7_, symObjAddr: 0x2808, symBinAddr: 0x100005F60, symSize: 0x64 }
  - { offset: 0x102A9, size: 0x8, addend: 0x0, symName: __ZNKSt3__16__lessIvvEclB8ne180100ImmEEbRKT_RKT0_, symObjAddr: 0x28C0, symBinAddr: 0x100006018, symSize: 0x34 }
  - { offset: 0x102FB, size: 0x8, addend: 0x0, symName: __ZNSt3__111char_traitsIwE11eq_int_typeB8ne180100Eii, symObjAddr: 0x28F4, symBinAddr: 0x10000604C, symSize: 0x28 }
  - { offset: 0x1032D, size: 0x8, addend: 0x0, symName: __ZNSt3__115basic_streambufIwNS_11char_traitsIwEEE5gbumpB8ne180100Ei, symObjAddr: 0x291C, symBinAddr: 0x100006074, symSize: 0x28 }
  - { offset: 0x10360, size: 0x8, addend: 0x0, symName: __ZNSt3__111char_traitsIwE7not_eofB8ne180100Ei, symObjAddr: 0x2944, symBinAddr: 0x10000609C, symSize: 0x5C }
  - { offset: 0x10383, size: 0x8, addend: 0x0, symName: __ZNSt3__111char_traitsIwE2eqB8ne180100Eww, symObjAddr: 0x29A0, symBinAddr: 0x1000060F8, symSize: 0x28 }
  - { offset: 0x103B5, size: 0x8, addend: 0x0, symName: __ZNSt3__111char_traitsIwE12to_char_typeB8ne180100Ei, symObjAddr: 0x29C8, symBinAddr: 0x100006120, symSize: 0x14 }
  - { offset: 0x103D8, size: 0x8, addend: 0x0, symName: __ZNSt3__113basic_filebufIwNS_11char_traitsIwEEE12__write_modeEv, symObjAddr: 0x29DC, symBinAddr: 0x100006134, symSize: 0xDC }
  - { offset: 0x103FE, size: 0x8, addend: 0x0, symName: __ZNKSt3__115basic_streambufIwNS_11char_traitsIwEEE5epptrB8ne180100Ev, symObjAddr: 0x2AB8, symBinAddr: 0x100006210, symSize: 0x18 }
  - { offset: 0x10422, size: 0x8, addend: 0x0, symName: __ZNSt3__115basic_streambufIwNS_11char_traitsIwEEE5pbumpB8ne180100Ei, symObjAddr: 0x2AD0, symBinAddr: 0x100006228, symSize: 0x28 }
  - { offset: 0x10454, size: 0x8, addend: 0x0, symName: __ZNKSt3__17codecvtIwc11__mbstate_tE3outB8ne180100ERS1_PKwS5_RS5_PcS7_RS7_, symObjAddr: 0x2AF8, symBinAddr: 0x100006250, symSize: 0x64 }
  - { offset: 0x104E1, size: 0x8, addend: 0x0, symName: __ZNSt3__115basic_streambufIwNS_11char_traitsIwEEE7__pbumpB8ne180100El, symObjAddr: 0x2B5C, symBinAddr: 0x1000062B4, symSize: 0x28 }
  - { offset: 0x10513, size: 0x8, addend: 0x0, symName: __ZNSt3__113basic_filebufIwNS_11char_traitsIwEEE4openEPKcj, symObjAddr: 0x2B84, symBinAddr: 0x1000062DC, symSize: 0x110 }
  - { offset: 0x10579, size: 0x8, addend: 0x0, symName: __ZNKSt3__112basic_stringIcNS_11char_traitsIcEENS_9allocatorIcEEE5c_strB8ne180100Ev, symObjAddr: 0x2C94, symBinAddr: 0x1000063EC, symSize: 0x24 }
  - { offset: 0x1059E, size: 0x8, addend: 0x0, symName: __ZNSt3__113basic_filebufIwNS_11char_traitsIwEEE15__make_mdstringEj, symObjAddr: 0x2CB8, symBinAddr: 0x100006410, symSize: 0x118 }
  - { offset: 0x105C3, size: 0x8, addend: 0x0, symName: __ZNKSt3__112basic_stringIcNS_11char_traitsIcEENS_9allocatorIcEEE4dataB8ne180100Ev, symObjAddr: 0x2EC0, symBinAddr: 0x100006618, symSize: 0x28 }
  - { offset: 0x105E7, size: 0x8, addend: 0x0, symName: __ZNKSt3__112basic_stringIcNS_11char_traitsIcEENS_9allocatorIcEEE13__get_pointerB8ne180100Ev, symObjAddr: 0x2EFC, symBinAddr: 0x100006654, symSize: 0x54 }
  - { offset: 0x1060B, size: 0x8, addend: 0x0, symName: __ZNKSt3__112basic_stringIcNS_11char_traitsIcEENS_9allocatorIcEEE9__is_longB8ne180100Ev, symObjAddr: 0x2F50, symBinAddr: 0x1000066A8, symSize: 0x38 }
  - { offset: 0x1062F, size: 0x8, addend: 0x0, symName: __ZNKSt3__112basic_stringIcNS_11char_traitsIcEENS_9allocatorIcEEE18__get_long_pointerB8ne180100Ev, symObjAddr: 0x2F88, symBinAddr: 0x1000066E0, symSize: 0x28 }
  - { offset: 0x10653, size: 0x8, addend: 0x0, symName: __ZNKSt3__112basic_stringIcNS_11char_traitsIcEENS_9allocatorIcEEE19__get_short_pointerB8ne180100Ev, symObjAddr: 0x2FB0, symBinAddr: 0x100006708, symSize: 0x28 }
  - { offset: 0x10677, size: 0x8, addend: 0x0, symName: __ZNKSt3__117__compressed_pairINS_12basic_stringIcNS_11char_traitsIcEENS_9allocatorIcEEE5__repES5_E5firstB8ne180100Ev, symObjAddr: 0x2FD8, symBinAddr: 0x100006730, symSize: 0x24 }
  - { offset: 0x1069B, size: 0x8, addend: 0x0, symName: __ZNKSt3__122__compressed_pair_elemINS_12basic_stringIcNS_11char_traitsIcEENS_9allocatorIcEEE5__repELi0ELb0EE5__getB8ne180100Ev, symObjAddr: 0x2FFC, symBinAddr: 0x100006754, symSize: 0x14 }
  - { offset: 0x106BF, size: 0x8, addend: 0x0, symName: __ZNSt3__114pointer_traitsIPKcE10pointer_toB8ne180100ERS1_, symObjAddr: 0x3010, symBinAddr: 0x100006768, symSize: 0x14 }
  - { offset: 0x106E1, size: 0x8, addend: 0x0, symName: __ZNSt3__18ios_base8setstateB8ne180100Ej, symObjAddr: 0x3024, symBinAddr: 0x10000677C, symSize: 0x34 }
  - { offset: 0x10716, size: 0x8, addend: 0x0, symName: __ZNSt3__113basic_filebufIwNS_11char_traitsIwEEED2Ev, symObjAddr: 0x3058, symBinAddr: 0x1000067B0, symSize: 0xF4 }
  - { offset: 0x10740, size: 0x8, addend: 0x0, symName: __ZNSt3__113basic_filebufIwNS_11char_traitsIwEEE5closeEv, symObjAddr: 0x314C, symBinAddr: 0x1000068A4, symSize: 0x118 }
  - { offset: 0x10830, size: 0x8, addend: 0x0, symName: __ZNSt3__110unique_ptrI7__sFILEPFiPS1_EEC1B8ne180100ILb1EvEES2_NS_16__dependent_typeINS_27__unique_ptr_deleter_sfinaeIS4_EEXT_EE20__good_rval_ref_typeE, symObjAddr: 0x3264, symBinAddr: 0x1000069BC, symSize: 0x3C }
  - { offset: 0x1087F, size: 0x8, addend: 0x0, symName: __ZNSt3__110unique_ptrI7__sFILEPFiPS1_EE7releaseB8ne180100Ev, symObjAddr: 0x32A0, symBinAddr: 0x1000069F8, symSize: 0x44 }
  - { offset: 0x108B2, size: 0x8, addend: 0x0, symName: __ZNSt3__110unique_ptrI7__sFILEPFiPS1_EED1B8ne180100Ev, symObjAddr: 0x32E4, symBinAddr: 0x100006A3C, symSize: 0x2C }
  - { offset: 0x108DA, size: 0x8, addend: 0x0, symName: __ZNSt3__110unique_ptrI7__sFILEPFiPS1_EEC2B8ne180100ILb1EvEES2_NS_16__dependent_typeINS_27__unique_ptr_deleter_sfinaeIS4_EEXT_EE20__good_rval_ref_typeE, symObjAddr: 0x3310, symBinAddr: 0x100006A68, symSize: 0x48 }
  - { offset: 0x10929, size: 0x8, addend: 0x0, symName: __ZNSt3__117__compressed_pairIP7__sFILEPFiS2_EEC1B8ne180100IRS2_S4_EEOT_OT0_, symObjAddr: 0x3358, symBinAddr: 0x100006AB0, symSize: 0x3C }
  - { offset: 0x1097F, size: 0x8, addend: 0x0, symName: __ZNSt3__117__compressed_pairIP7__sFILEPFiS2_EEC2B8ne180100IRS2_S4_EEOT_OT0_, symObjAddr: 0x3394, symBinAddr: 0x100006AEC, symSize: 0x48 }
  - { offset: 0x109D5, size: 0x8, addend: 0x0, symName: __ZNSt3__122__compressed_pair_elemIP7__sFILELi0ELb0EEC2B8ne180100IRS2_vEEOT_, symObjAddr: 0x33DC, symBinAddr: 0x100006B34, symSize: 0x24 }
  - { offset: 0x10A15, size: 0x8, addend: 0x0, symName: __ZNSt3__122__compressed_pair_elemIPFiP7__sFILEELi1ELb0EEC2B8ne180100IS4_vEEOT_, symObjAddr: 0x3400, symBinAddr: 0x100006B58, symSize: 0x24 }
  - { offset: 0x10A55, size: 0x8, addend: 0x0, symName: __ZNSt3__117__compressed_pairIP7__sFILEPFiS2_EE5firstB8ne180100Ev, symObjAddr: 0x3424, symBinAddr: 0x100006B7C, symSize: 0x24 }
  - { offset: 0x10A79, size: 0x8, addend: 0x0, symName: __ZNSt3__122__compressed_pair_elemIP7__sFILELi0ELb0EE5__getB8ne180100Ev, symObjAddr: 0x3448, symBinAddr: 0x100006BA0, symSize: 0x14 }
  - { offset: 0x10A9D, size: 0x8, addend: 0x0, symName: __ZNSt3__110unique_ptrI7__sFILEPFiPS1_EED2B8ne180100Ev, symObjAddr: 0x345C, symBinAddr: 0x100006BB4, symSize: 0x30 }
  - { offset: 0x10AC5, size: 0x8, addend: 0x0, symName: __ZNSt3__110unique_ptrI7__sFILEPFiPS1_EE5resetB8ne180100ES2_, symObjAddr: 0x348C, symBinAddr: 0x100006BE4, symSize: 0x84 }
  - { offset: 0x10B07, size: 0x8, addend: 0x0, symName: __ZNSt3__117__compressed_pairIP7__sFILEPFiS2_EE6secondB8ne180100Ev, symObjAddr: 0x3510, symBinAddr: 0x100006C68, symSize: 0x28 }
  - { offset: 0x10B2B, size: 0x8, addend: 0x0, symName: __ZNSt3__122__compressed_pair_elemIPFiP7__sFILEELi1ELb0EE5__getB8ne180100Ev, symObjAddr: 0x3538, symBinAddr: 0x100006C90, symSize: 0x14 }
  - { offset: 0x10B50, size: 0x8, addend: 0x0, symName: __ZNKSt3__113basic_filebufIwNS_11char_traitsIwEEE7is_openEv, symObjAddr: 0x354C, symBinAddr: 0x100006CA4, symSize: 0x24 }
  - { offset: 0x10B76, size: 0x8, addend: 0x0, symName: __ZNKSt3__19basic_iosIwNS_11char_traitsIwEEE4failB8ne180100Ev, symObjAddr: 0x3570, symBinAddr: 0x100006CC8, symSize: 0x28 }
  - { offset: 0x10B9B, size: 0x8, addend: 0x0, symName: __ZNKSt3__18ios_base4failB8ne180100Ev, symObjAddr: 0x3598, symBinAddr: 0x100006CF0, symSize: 0x28 }
  - { offset: 0x10BC2, size: 0x8, addend: 0x0, symName: __ZNKSt3__18ios_base7rdstateB8ne180100Ev, symObjAddr: 0x35C0, symBinAddr: 0x100006D18, symSize: 0x18 }
  - { offset: 0x10BE8, size: 0x8, addend: 0x0, symName: __ZNKSt3__112basic_stringIcNS_11char_traitsIcEENS_9allocatorIcEEE4sizeB8ne180100Ev, symObjAddr: 0x37C4, symBinAddr: 0x100006F1C, symSize: 0x54 }
  - { offset: 0x10C2A, size: 0x8, addend: 0x0, symName: __ZNKSt3__113basic_ostreamIcNS_11char_traitsIcEEE6sentrycvbB8ne180100Ev, symObjAddr: 0x3818, symBinAddr: 0x100006F70, symSize: 0x1C }
  - { offset: 0x10C4E, size: 0x8, addend: 0x0, symName: __ZNSt3__119ostreambuf_iteratorIcNS_11char_traitsIcEEEC1B8ne180100ERNS_13basic_ostreamIcS2_EE, symObjAddr: 0x3A74, symBinAddr: 0x1000071CC, symSize: 0x34 }
  - { offset: 0x10C85, size: 0x8, addend: 0x0, symName: __ZNKSt3__18ios_base5flagsB8ne180100Ev, symObjAddr: 0x3AA8, symBinAddr: 0x100007200, symSize: 0x18 }
  - { offset: 0x10CAB, size: 0x8, addend: 0x0, symName: __ZNKSt3__19basic_iosIcNS_11char_traitsIcEEE4fillB8ne180100Ev, symObjAddr: 0x3AC0, symBinAddr: 0x100007218, symSize: 0x64 }
  - { offset: 0x10CD1, size: 0x8, addend: 0x0, symName: __ZNKSt3__119ostreambuf_iteratorIcNS_11char_traitsIcEEE6failedB8ne180100Ev, symObjAddr: 0x3B24, symBinAddr: 0x10000727C, symSize: 0x24 }
  - { offset: 0x10CF5, size: 0x8, addend: 0x0, symName: __ZNSt3__19basic_iosIcNS_11char_traitsIcEEE8setstateB8ne180100Ej, symObjAddr: 0x3B48, symBinAddr: 0x1000072A0, symSize: 0x2C }
  - { offset: 0x10D29, size: 0x8, addend: 0x0, symName: __ZNKSt3__18ios_base5widthB8ne180100Ev, symObjAddr: 0x3B74, symBinAddr: 0x1000072CC, symSize: 0x18 }
  - { offset: 0x10D4F, size: 0x8, addend: 0x0, symName: __ZNSt3__115basic_streambufIcNS_11char_traitsIcEEE5sputnB8ne180100EPKcl, symObjAddr: 0x3B8C, symBinAddr: 0x1000072E4, symSize: 0x3C }
  - { offset: 0x10D8F, size: 0x8, addend: 0x0, symName: __ZNSt3__112basic_stringIcNS_11char_traitsIcEENS_9allocatorIcEEEC1B8ne180100Emc, symObjAddr: 0x3BC8, symBinAddr: 0x100007320, symSize: 0x3C }
  - { offset: 0x10DD5, size: 0x8, addend: 0x0, symName: __ZNSt3__112basic_stringIcNS_11char_traitsIcEENS_9allocatorIcEEE4dataB8ne180100Ev, symObjAddr: 0x3C04, symBinAddr: 0x10000735C, symSize: 0x28 }
  - { offset: 0x10DFA, size: 0x8, addend: 0x0, symName: __ZNSt3__18ios_base5widthB8ne180100El, symObjAddr: 0x3C2C, symBinAddr: 0x100007384, symSize: 0x2C }
  - { offset: 0x10E3E, size: 0x8, addend: 0x0, symName: __ZNSt3__112basic_stringIcNS_11char_traitsIcEENS_9allocatorIcEEEC2B8ne180100Emc, symObjAddr: 0x3C58, symBinAddr: 0x1000073B0, symSize: 0x4C }
  - { offset: 0x10E89, size: 0x8, addend: 0x0, symName: __ZNSt3__117__compressed_pairINS_12basic_stringIcNS_11char_traitsIcEENS_9allocatorIcEEE5__repES5_EC1B8ne180100INS_18__default_init_tagESA_EEOT_OT0_, symObjAddr: 0x3CA4, symBinAddr: 0x1000073FC, symSize: 0x3C }
  - { offset: 0x10EDF, size: 0x8, addend: 0x0, symName: __ZNSt3__117__compressed_pairINS_12basic_stringIcNS_11char_traitsIcEENS_9allocatorIcEEE5__repES5_EC2B8ne180100INS_18__default_init_tagESA_EEOT_OT0_, symObjAddr: 0x3CE0, symBinAddr: 0x100007438, symSize: 0x3C }
  - { offset: 0x10F35, size: 0x8, addend: 0x0, symName: __ZNSt3__122__compressed_pair_elemINS_12basic_stringIcNS_11char_traitsIcEENS_9allocatorIcEEE5__repELi0ELb0EEC2B8ne180100ENS_18__default_init_tagE, symObjAddr: 0x3D1C, symBinAddr: 0x100007474, symSize: 0x14 }
  - { offset: 0x10F68, size: 0x8, addend: 0x0, symName: __ZNSt3__122__compressed_pair_elemINS_9allocatorIcEELi1ELb1EEC2B8ne180100ENS_18__default_init_tagE, symObjAddr: 0x3D30, symBinAddr: 0x100007488, symSize: 0x2C }
  - { offset: 0x10F9B, size: 0x8, addend: 0x0, symName: __ZNSt3__19allocatorIcEC2B8ne180100Ev, symObjAddr: 0x3D5C, symBinAddr: 0x1000074B4, symSize: 0x2C }
  - { offset: 0x10FC3, size: 0x8, addend: 0x0, symName: __ZNSt3__116__non_trivial_ifILb1ENS_9allocatorIcEEEC2B8ne180100Ev, symObjAddr: 0x3D88, symBinAddr: 0x1000074E0, symSize: 0x14 }
  - { offset: 0x10FEB, size: 0x8, addend: 0x0, symName: __ZNSt3__112basic_stringIcNS_11char_traitsIcEENS_9allocatorIcEEE13__get_pointerB8ne180100Ev, symObjAddr: 0x3DB0, symBinAddr: 0x100007508, symSize: 0x54 }
  - { offset: 0x1100F, size: 0x8, addend: 0x0, symName: __ZNSt3__112basic_stringIcNS_11char_traitsIcEENS_9allocatorIcEEE18__get_long_pointerB8ne180100Ev, symObjAddr: 0x3E04, symBinAddr: 0x10000755C, symSize: 0x28 }
  - { offset: 0x11033, size: 0x8, addend: 0x0, symName: __ZNSt3__112basic_stringIcNS_11char_traitsIcEENS_9allocatorIcEEE19__get_short_pointerB8ne180100Ev, symObjAddr: 0x3E2C, symBinAddr: 0x100007584, symSize: 0x28 }
  - { offset: 0x11057, size: 0x8, addend: 0x0, symName: __ZNSt3__117__compressed_pairINS_12basic_stringIcNS_11char_traitsIcEENS_9allocatorIcEEE5__repES5_E5firstB8ne180100Ev, symObjAddr: 0x3E54, symBinAddr: 0x1000075AC, symSize: 0x24 }
  - { offset: 0x1107B, size: 0x8, addend: 0x0, symName: __ZNSt3__122__compressed_pair_elemINS_12basic_stringIcNS_11char_traitsIcEENS_9allocatorIcEEE5__repELi0ELb0EE5__getB8ne180100Ev, symObjAddr: 0x3E78, symBinAddr: 0x1000075D0, symSize: 0x14 }
  - { offset: 0x1109F, size: 0x8, addend: 0x0, symName: __ZNSt3__114pointer_traitsIPcE10pointer_toB8ne180100ERc, symObjAddr: 0x3E8C, symBinAddr: 0x1000075E4, symSize: 0x14 }
  - { offset: 0x110C1, size: 0x8, addend: 0x0, symName: __ZNSt3__119ostreambuf_iteratorIcNS_11char_traitsIcEEEC2B8ne180100ERNS_13basic_ostreamIcS2_EE, symObjAddr: 0x3EA0, symBinAddr: 0x1000075F8, symSize: 0x54 }
  - { offset: 0x110F7, size: 0x8, addend: 0x0, symName: __ZNKSt3__19basic_iosIcNS_11char_traitsIcEEE5rdbufB8ne180100Ev, symObjAddr: 0x3EF4, symBinAddr: 0x10000764C, symSize: 0x24 }
  - { offset: 0x1111D, size: 0x8, addend: 0x0, symName: __ZNKSt3__18ios_base5rdbufB8ne180100Ev, symObjAddr: 0x3F18, symBinAddr: 0x100007670, symSize: 0x18 }
  - { offset: 0x11141, size: 0x8, addend: 0x0, symName: __ZNSt3__111char_traitsIcE11eq_int_typeB8ne180100Eii, symObjAddr: 0x3F30, symBinAddr: 0x100007688, symSize: 0x28 }
  - { offset: 0x11173, size: 0x8, addend: 0x0, symName: __ZNSt3__111char_traitsIcE3eofB8ne180100Ev, symObjAddr: 0x3F58, symBinAddr: 0x1000076B0, symSize: 0x8 }
  - { offset: 0x11186, size: 0x8, addend: 0x0, symName: __ZNKSt3__19basic_iosIcNS_11char_traitsIcEEE5widenB8ne180100Ec, symObjAddr: 0x3F60, symBinAddr: 0x1000076B8, symSize: 0x84 }
  - { offset: 0x111FD, size: 0x8, addend: 0x0, symName: __ZNKSt3__15ctypeIcE5widenB8ne180100Ec, symObjAddr: 0x4010, symBinAddr: 0x100007768, symSize: 0x38 }
  - { offset: 0x11230, size: 0x8, addend: 0x0, symName: __ZNKSt3__112basic_stringIcNS_11char_traitsIcEENS_9allocatorIcEEE15__get_long_sizeB8ne180100Ev, symObjAddr: 0x4048, symBinAddr: 0x1000077A0, symSize: 0x28 }
  - { offset: 0x11254, size: 0x8, addend: 0x0, symName: __ZNKSt3__112basic_stringIcNS_11char_traitsIcEENS_9allocatorIcEEE16__get_short_sizeB8ne180100Ev, symObjAddr: 0x4070, symBinAddr: 0x1000077C8, symSize: 0x34 }
  - { offset: 0x11278, size: 0x8, addend: 0x0, symName: __ZNSt3__114basic_ifstreamIwNS_11char_traitsIwEEED2Ev, symObjAddr: 0x40A4, symBinAddr: 0x1000077FC, symSize: 0x64 }
  - { offset: 0x112AF, size: 0x8, addend: 0x0, symName: __ZNSt3__111char_traitsIcE6lengthB8ne180100EPKc, symObjAddr: 0x4108, symBinAddr: 0x100007860, symSize: 0x34 }
  - { offset: 0x112D1, size: 0x8, addend: 0x0, symName: __ZNSt3__112basic_stringIcNS_11char_traitsIcEENS_9allocatorIcEEEC2B8ne180100ILi0EEEPKc, symObjAddr: 0x4160, symBinAddr: 0x1000078B8, symSize: 0x58 }
...
